; Function Attrs: mustprogress uwtable
define void @_ZN3net10SpdyFramer11set_visitorEPNS_26SpdyFramerVisitorInterfaceE(ptr noundef nonnull align 8 captures(none) dereferenceable(259) initializes((176, 184)) %0, ptr noundef %1) local_unnamed_addr #0 align 2 {
  %3 = getelementptr inbounds nuw i8, ptr %0, i64 240
  %4 = load ptr, ptr %3, align 8, !tbaa !99
  %.not = icmp eq ptr %4, null
  br i1 %.not, label %9, label %5

5:                                                ; preds = %2
  %6 = load ptr, ptr %4, align 8, !tbaa !9
  %7 = getelementptr inbounds nuw i8, ptr %6, i64 16
  %8 = load ptr, ptr %7, align 8
  tail call void %8(ptr noundef nonnull align 8 dereferenceable(25) %4, ptr noundef %1)
  br label %9

9:                                                ; preds = %5, %2
  %10 = getelementptr inbounds nuw i8, ptr %0, i64 176
  store ptr %1, ptr %10, align 8, !tbaa !105
  ret void
}